; Function Attrs: mustprogress uwtable
define void @_ZN5arrow4util17CountingSemaphoreC2Ejd(ptr noundef nonnull writeonly align 8 captures(none) dereferenceable(8) initializes((0, 8)) %0, i32 noundef %1, double noundef %2) unnamed_addr #3 align 2 personality ptr @__gxx_personality_v0 {
  %4 = tail call noalias noundef nonnull dereferenceable(160) ptr @_Znwm(i64 noundef 160) #14
  store i32 %1, ptr %4, align 8, !tbaa !3
  %5 = getelementptr inbounds nuw i8, ptr %4, i64 8
  store double %2, ptr %5, align 8, !tbaa !14
  %6 = getelementptr inbounds nuw i8, ptr %4, i64 16
  store i32 0, ptr %6, align 8, !tbaa !15
  %7 = getelementptr inbounds nuw i8, ptr %4, i64 20
  store i8 0, ptr %7, align 4, !tbaa !16
  %8 = getelementptr inbounds nuw i8, ptr %4, i64 24
  tail call void @llvm.memset.p0.i64(ptr noundef nonnull align 8 dereferenceable(40) %8, i8 0, i64 40, i1 false)
  %9 = getelementptr inbounds nuw i8, ptr %4, i64 64
  tail call void @_ZNSt18condition_variableC1Ev(ptr noundef nonnull align 8 dereferenceable(48) %9) #15
  %10 = getelementptr inbounds nuw i8, ptr %4, i64 112
  tail call void @_ZNSt18condition_variableC1Ev(ptr noundef nonnull align 8 dereferenceable(48) %10) #15
  store ptr %4, ptr %0, align 8, !tbaa !17
  ret void
}